target datalayout = "e-m:e-p270:32:32-p271:32:32-p272:64:64-i64:64-i128:128-f80:128-n8:16:32:64-S128"
target triple = "x86_64-pc-linux-gnu"

%struct._packet_info = type { ptr, ptr, i32, i32, %struct.nstime_t, %struct.nstime_t, %struct.nstime_t, i8, ptr, ptr, ptr, ptr, %struct._address, %struct._address, %struct._address, %struct._address, %struct._address, %struct._address, i32, ptr, i8, [3 x i8], %struct.anon, i32, i32, i32, i32, ptr, i8, ptr, ptr, i16, i16, i32, i32, i16, i32, i32, ptr, ptr, ptr, i8, i8, i16, i16, i16, i32, i16, i16, ptr, ptr, ptr, ptr, ptr, i32, i32 }
%struct.nstime_t = type { i64, i32 }
%struct._address = type { i32, i32, ptr, ptr }
%struct.anon = type { i8, [3 x i8] }
%struct.anon.0 = type { i16, ptr, ptr }

@.str.110 = private unnamed_addr constant [8 x i8] c"Unknown\00", align 1
@hf_icq_tlv_data_chunk_size = internal global i32 0, align 4
@hf_icq_tlv_request_owner_uid = internal global i32 0, align 4
@hf_icq_tlv_request_type = internal global i32 0, align 4
@hf_icq_tlv_request_seq_num = internal global i32 0, align 4
@hf_icq_dropped_msg_flag = internal global i32 0, align 4
@hf_icq_meta_subtype = internal global i32 0, align 4
@ett_aim_icq_tlv = internal global i32 0, align 4
@.str.767 = private unnamed_addr constant [22 x i8] c"Unknown ICQ Meta Call\00", align 1
@.str.768 = private unnamed_addr constant [6 x i8] c" (%s)\00", align 1

; Function Attrs: null_pointer_is_valid sspstrong uwtable
define internal i32 @dissect_aim_tlv_value_icq(ptr noundef %0, i16 noundef zeroext %1, ptr noundef %2, ptr noundef %3) #0 {
  %5 = alloca i32, align 4
  %6 = alloca ptr, align 8
  %7 = alloca i16, align 2
  %8 = alloca ptr, align 8
  %9 = alloca ptr, align 8
  %10 = alloca i32, align 4
  %11 = alloca i32, align 4
  %12 = alloca ptr, align 8
  %13 = alloca i16, align 2
  %14 = alloca i16, align 2
  %15 = alloca ptr, align 8
  %16 = alloca i32, align 4
  store ptr %0, ptr %6, align 8
  store i16 %1, ptr %7, align 2
  store ptr %2, ptr %8, align 8
  store ptr %3, ptr %9, align 8
  call void @llvm.lifetime.start.p0(i64 4, ptr %10) #13
  store i32 0, ptr %10, align 4
  call void @llvm.lifetime.start.p0(i64 4, ptr %11) #13
  call void @llvm.lifetime.start.p0(i64 8, ptr %12) #13
  call void @llvm.lifetime.start.p0(i64 2, ptr %13) #13
  call void @llvm.lifetime.start.p0(i64 2, ptr %14) #13
  call void @llvm.lifetime.start.p0(i64 8, ptr %15) #13
  %17 = load ptr, ptr %6, align 8
  %18 = load i32, ptr @ett_aim_icq_tlv, align 4
  %19 = call ptr @proto_item_add_subtree(ptr noundef %17, i32 noundef %18)
  store ptr %19, ptr %15, align 8
  %20 = load ptr, ptr %15, align 8
  %21 = load i32, ptr @hf_icq_tlv_data_chunk_size, align 4
  %22 = load ptr, ptr %8, align 8
  %23 = load i32, ptr %10, align 4
  %24 = call ptr @proto_tree_add_item(ptr noundef %20, i32 noundef %21, ptr noundef %22, i32 noundef %23, i32 noundef 2, i32 noundef -2147483648)
  %25 = load i32, ptr %10, align 4
  %26 = add i32 %25, 2
  store i32 %26, ptr %10, align 4
  %27 = load ptr, ptr %15, align 8
  %28 = load i32, ptr @hf_icq_tlv_request_owner_uid, align 4
  %29 = load ptr, ptr %8, align 8
  %30 = load i32, ptr %10, align 4
  %31 = call ptr @proto_tree_add_item(ptr noundef %27, i32 noundef %28, ptr noundef %29, i32 noundef %30, i32 noundef 4, i32 noundef -2147483648)
  %32 = load i32, ptr %10, align 4
  %33 = add i32 %32, 4
  store i32 %33, ptr %10, align 4
  %34 = load ptr, ptr %15, align 8
  %35 = load i32, ptr @hf_icq_tlv_request_type, align 4
  %36 = load ptr, ptr %8, align 8
  %37 = load i32, ptr %10, align 4
  %38 = call ptr @proto_tree_add_item(ptr noundef %34, i32 noundef %35, ptr noundef %36, i32 noundef %37, i32 noundef 2, i32 noundef -2147483648)
  %39 = load ptr, ptr %8, align 8
  %40 = load i32, ptr %10, align 4
  %41 = call zeroext i16 @tvb_get_letohs(ptr noundef %39, i32 noundef %40)
  store i16 %41, ptr %13, align 2
  %42 = load i32, ptr %10, align 4
  %43 = add i32 %42, 2
  store i32 %43, ptr %10, align 4
  %44 = load ptr, ptr %15, align 8
  %45 = load i32, ptr @hf_icq_tlv_request_seq_num, align 4
  %46 = load ptr, ptr %8, align 8
  %47 = load i32, ptr %10, align 4
  %48 = call ptr @proto_tree_add_item(ptr noundef %44, i32 noundef %45, ptr noundef %46, i32 noundef %47, i32 noundef 2, i32 noundef -2147483648)
  %49 = load i32, ptr %10, align 4
  %50 = add i32 %49, 2
  store i32 %50, ptr %10, align 4
  %51 = load i16, ptr %13, align 2
  %52 = zext i16 %51 to i32
  switch i32 %52, label %152 [
    i32 60, label %53
    i32 62, label %55
    i32 65, label %153
    i32 66, label %57
    i32 2000, label %65
    i32 2010, label %65
  ]

53:                                               ; preds = %4
  %54 = load i32, ptr %10, align 4
  store i32 %54, ptr %5, align 4
  store i32 1, ptr %16, align 4
  br label %155

55:                                               ; preds = %4
  %56 = load i32, ptr %10, align 4
  store i32 %56, ptr %5, align 4
  store i32 1, ptr %16, align 4
  br label %155

57:                                               ; preds = %4
  %58 = load ptr, ptr %15, align 8
  %59 = load i32, ptr @hf_icq_dropped_msg_flag, align 4
  %60 = load ptr, ptr %8, align 8
  %61 = load i32, ptr %10, align 4
  %62 = call ptr @proto_tree_add_item(ptr noundef %58, i32 noundef %59, ptr noundef %60, i32 noundef %61, i32 noundef 1, i32 noundef -2147483648)
  %63 = load i32, ptr %10, align 4
  %64 = add i32 %63, 1
  store i32 %64, ptr %5, align 4
  store i32 1, ptr %16, align 4
  br label %155

65:                                               ; preds = %4, %4
  %66 = load ptr, ptr %8, align 8
  %67 = load i32, ptr %10, align 4
  %68 = call zeroext i16 @tvb_get_letohs(ptr noundef %66, i32 noundef %67)
  store i16 %68, ptr %14, align 2
  %69 = load ptr, ptr %15, align 8
  %70 = load i32, ptr @hf_icq_meta_subtype, align 4
  %71 = load ptr, ptr %8, align 8
  %72 = load i32, ptr %10, align 4
  %73 = call ptr @proto_tree_add_item(ptr noundef %69, i32 noundef %70, ptr noundef %71, i32 noundef %72, i32 noundef 2, i32 noundef -2147483648)
  store ptr %73, ptr %12, align 8
  %74 = load i32, ptr %10, align 4
  %75 = add i32 %74, 2
  store i32 %75, ptr %10, align 4
  store i32 0, ptr %11, align 4
  br label %76

76:                                               ; preds = %95, %65
  %77 = load i32, ptr %11, align 4
  %78 = sext i32 %77 to i64
  %79 = getelementptr [52 x %struct.anon.0], ptr @icq_calls, i64 0, i64 %78
  %80 = getelementptr inbounds nuw %struct.anon.0, ptr %79, i32 0, i32 1
  %81 = load ptr, ptr %80, align 8
  %82 = icmp ne ptr %81, null
  br i1 %82, label %83, label %98

83:                                               ; preds = %76
  %84 = load i32, ptr %11, align 4
  %85 = sext i32 %84 to i64
  %86 = getelementptr [52 x %struct.anon.0], ptr @icq_calls, i64 0, i64 %85
  %87 = getelementptr inbounds nuw %struct.anon.0, ptr %86, i32 0, i32 0
  %88 = load i16, ptr %87, align 8
  %89 = zext i16 %88 to i32
  %90 = load i16, ptr %14, align 2
  %91 = zext i16 %90 to i32
  %92 = icmp eq i32 %89, %91
  br i1 %92, label %93, label %94

93:                                               ; preds = %83
  br label %98

94:                                               ; preds = %83
  br label %95

95:                                               ; preds = %94
  %96 = load i32, ptr %11, align 4
  %97 = add i32 %96, 1
  store i32 %97, ptr %11, align 4
  br label %76, !llvm.loop !36

98:                                               ; preds = %93, %76
  %99 = load ptr, ptr %9, align 8
  %100 = getelementptr inbounds nuw %struct._packet_info, ptr %99, i32 0, i32 1
  %101 = load ptr, ptr %100, align 8
  %102 = load i32, ptr %11, align 4
  %103 = sext i32 %102 to i64
  %104 = getelementptr [52 x %struct.anon.0], ptr @icq_calls, i64 0, i64 %103
  %105 = getelementptr inbounds nuw %struct.anon.0, ptr %104, i32 0, i32 1
  %106 = load ptr, ptr %105, align 8
  %107 = icmp ne ptr %106, null
  br i1 %107, label %108, label %114

108:                                              ; preds = %98
  %109 = load i32, ptr %11, align 4
  %110 = sext i32 %109 to i64
  %111 = getelementptr [52 x %struct.anon.0], ptr @icq_calls, i64 0, i64 %110
  %112 = getelementptr inbounds nuw %struct.anon.0, ptr %111, i32 0, i32 1
  %113 = load ptr, ptr %112, align 8
  br label %115

114:                                              ; preds = %98
  br label %115

115:                                              ; preds = %114, %108
  %116 = phi ptr [ %113, %108 ], [ @.str.767, %114 ]
  call void @col_set_str(ptr noundef %101, i32 noundef 25, ptr noundef %116)
  %117 = load ptr, ptr %12, align 8
  %118 = load i32, ptr %11, align 4
  %119 = sext i32 %118 to i64
  %120 = getelementptr [52 x %struct.anon.0], ptr @icq_calls, i64 0, i64 %119
  %121 = getelementptr inbounds nuw %struct.anon.0, ptr %120, i32 0, i32 1
  %122 = load ptr, ptr %121, align 8
  %123 = icmp ne ptr %122, null
  br i1 %123, label %124, label %130

124:                                              ; preds = %115
  %125 = load i32, ptr %11, align 4
  %126 = sext i32 %125 to i64
  %127 = getelementptr [52 x %struct.anon.0], ptr @icq_calls, i64 0, i64 %126
  %128 = getelementptr inbounds nuw %struct.anon.0, ptr %127, i32 0, i32 1
  %129 = load ptr, ptr %128, align 8
  br label %131

130:                                              ; preds = %115
  br label %131

131:                                              ; preds = %130, %124
  %132 = phi ptr [ %129, %124 ], [ @.str.110, %130 ]
  call void (ptr, ptr, ...) @proto_item_append_text(ptr noundef %117, ptr noundef @.str.768, ptr noundef %132)
  %133 = load i32, ptr %11, align 4
  %134 = sext i32 %133 to i64
  %135 = getelementptr [52 x %struct.anon.0], ptr @icq_calls, i64 0, i64 %134
  %136 = getelementptr inbounds nuw %struct.anon.0, ptr %135, i32 0, i32 2
  %137 = load ptr, ptr %136, align 8
  %138 = icmp ne ptr %137, null
  br i1 %138, label %139, label %151

139:                                              ; preds = %131
  %140 = load i32, ptr %11, align 4
  %141 = sext i32 %140 to i64
  %142 = getelementptr [52 x %struct.anon.0], ptr @icq_calls, i64 0, i64 %141
  %143 = getelementptr inbounds nuw %struct.anon.0, ptr %142, i32 0, i32 2
  %144 = load ptr, ptr %143, align 8
  %145 = load ptr, ptr %8, align 8
  %146 = load i32, ptr %10, align 4
  %147 = call ptr @tvb_new_subset_remaining(ptr noundef %145, i32 noundef %146)
  %148 = load ptr, ptr %9, align 8
  %149 = load ptr, ptr %15, align 8
  %150 = call i32 %144(ptr noundef %147, ptr noundef %148, ptr noundef %149)
  store i32 %150, ptr %5, align 4
  store i32 1, ptr %16, align 4
  br label %155

151:                                              ; preds = %131
  br label %152

152:                                              ; preds = %4, %151
  br label %153

153:                                              ; preds = %152, %4
  %154 = load i32, ptr %10, align 4
  store i32 %154, ptr %5, align 4
  store i32 1, ptr %16, align 4
  br label %155

155:                                              ; preds = %153, %139, %57, %55, %53
  call void @llvm.lifetime.end.p0(i64 8, ptr %15) #13
  call void @llvm.lifetime.end.p0(i64 2, ptr %14) #13
  call void @llvm.lifetime.end.p0(i64 2, ptr %13) #13
  call void @llvm.lifetime.end.p0(i64 8, ptr %12) #13
  call void @llvm.lifetime.end.p0(i64 4, ptr %11) #13
  call void @llvm.lifetime.end.p0(i64 4, ptr %10) #13
  %156 = load i32, ptr %5, align 4
  ret i32 %156
}