; Function Attrs: null_pointer_is_valid sspstrong uwtable
define internal i32 @dissect_aim_tlv_value_icq(ptr noundef %0, i16 zeroext %1, ptr noundef %2, ptr noundef %3) #0 {
  %5 = load i32, ptr @ett_aim_icq_tlv, align 4
  %6 = tail call ptr @proto_item_add_subtree(ptr noundef %0, i32 noundef %5)
  %7 = load i32, ptr @hf_icq_tlv_data_chunk_size, align 4
  %8 = tail call ptr @proto_tree_add_item(ptr noundef %6, i32 noundef %7, ptr noundef %2, i32 noundef 0, i32 noundef 2, i32 noundef -2147483648)
  %9 = load i32, ptr @hf_icq_tlv_request_owner_uid, align 4
  %10 = tail call ptr @proto_tree_add_item(ptr noundef %6, i32 noundef %9, ptr noundef %2, i32 noundef 2, i32 noundef 4, i32 noundef -2147483648)
  %11 = load i32, ptr @hf_icq_tlv_request_type, align 4
  %12 = tail call ptr @proto_tree_add_item(ptr noundef %6, i32 noundef %11, ptr noundef %2, i32 noundef 6, i32 noundef 2, i32 noundef -2147483648)
  %13 = tail call zeroext i16 @tvb_get_letohs(ptr noundef %2, i32 noundef 6)
  %14 = load i32, ptr @hf_icq_tlv_request_seq_num, align 4
  %15 = tail call ptr @proto_tree_add_item(ptr noundef %6, i32 noundef %14, ptr noundef %2, i32 noundef 8, i32 noundef 2, i32 noundef -2147483648)
  switch i16 %13, label %38 [
    i16 2000, label %19
    i16 66, label %16
    i16 2010, label %19
  ]

16:                                               ; preds = %4
  %17 = load i32, ptr @hf_icq_dropped_msg_flag, align 4
  %18 = tail call ptr @proto_tree_add_item(ptr noundef %6, i32 noundef %17, ptr noundef %2, i32 noundef 10, i32 noundef 1, i32 noundef -2147483648)
  br label %38

19:                                               ; preds = %4, %4
  %20 = tail call zeroext i16 @tvb_get_letohs(ptr noundef %2, i32 noundef 10)
  %21 = load i32, ptr @hf_icq_meta_subtype, align 4
  %22 = tail call ptr @proto_tree_add_item(ptr noundef %6, i32 noundef %21, ptr noundef %2, i32 noundef 10, i32 noundef 2, i32 noundef -2147483648)
  %23 = icmp eq i16 %20, 1
  br i1 %23, label %._crit_edge62, label %.lr.ph

.lr.ph:                                           ; preds = %19, %24
  %indvars.iv59 = phi i64 [ %indvars.iv.next, %24 ], [ 0, %19 ]
  %indvars.iv.next = add nuw nsw i64 %indvars.iv59, 1
  %exitcond = icmp eq i64 %indvars.iv.next, 51
  br i1 %exitcond, label %._crit_edge62, label %24, !llvm.loop !35

24:                                               ; preds = %.lr.ph
  %25 = getelementptr [52 x %struct.anon.0], ptr @icq_calls, i64 0, i64 %indvars.iv.next
  %26 = load i16, ptr %25, align 8
  %27 = icmp eq i16 %26, %20
  br i1 %27, label %._crit_edge, label %.lr.ph, !llvm.loop !35

._crit_edge:                                      ; preds = %24
  %28 = getelementptr inbounds nuw i8, ptr %25, i64 8
  %29 = load ptr, ptr %28, align 8
  br label %._crit_edge62

._crit_edge62:                                    ; preds = %.lr.ph, %._crit_edge, %19
  %.lcssa = phi ptr [ %25, %._crit_edge ], [ @icq_calls, %19 ], [ getelementptr inbounds nuw (i8, ptr @icq_calls, i64 1224), %.lr.ph ]
  %30 = phi ptr [ %29, %._crit_edge ], [ @.str.769, %19 ], [ @.str.110, %.lr.ph ]
  %spec.select = phi ptr [ %29, %._crit_edge ], [ @.str.769, %19 ], [ @.str.767, %.lr.ph ]
  %31 = getelementptr inbounds nuw i8, ptr %3, i64 8
  %32 = load ptr, ptr %31, align 8
  tail call void @col_set_str(ptr noundef %32, i32 noundef 25, ptr noundef nonnull %spec.select)
  tail call void (ptr, ptr, ...) @proto_item_append_text(ptr noundef %22, ptr noundef nonnull @.str.768, ptr noundef nonnull %30)
  %33 = getelementptr inbounds nuw i8, ptr %.lcssa, i64 16
  %34 = load ptr, ptr %33, align 8
  %.not56 = icmp eq ptr %34, null
  br i1 %.not56, label %38, label %35

35:                                               ; preds = %._crit_edge62
  %36 = tail call ptr @tvb_new_subset_remaining(ptr noundef %2, i32 noundef 12)
  %37 = tail call i32 %34(ptr noundef %36, ptr noundef %3, ptr noundef %6)
  br label %38

38:                                               ; preds = %._crit_edge62, %4, %35, %16
  %.0 = phi i32 [ 11, %16 ], [ %37, %35 ], [ 10, %4 ], [ 12, %._crit_edge62 ]
  ret i32 %.0
}